target datalayout = "e-m:e-p270:32:32-p271:32:32-p272:64:64-i64:64-i128:128-f80:128-n8:16:32:64-S128"
target triple = "x86_64-unknown-linux-gnu"

%"class.std::set.0" = type { %"class.std::_Rb_tree.1" }
%"class.std::_Rb_tree.1" = type { %"struct.std::_Rb_tree<QuantLib::Observer *, QuantLib::Observer *, std::_Identity<QuantLib::Observer *>, std::less<QuantLib::Observer *>>::_Rb_tree_impl" }
%"struct.std::_Rb_tree<QuantLib::Observer *, QuantLib::Observer *, std::_Identity<QuantLib::Observer *>, std::less<QuantLib::Observer *>>::_Rb_tree_impl" = type { [8 x i8], %"struct.std::_Rb_tree_header" }
%"struct.std::_Rb_tree_header" = type { %"struct.std::_Rb_tree_node_base", i64 }
%"struct.std::_Rb_tree_node_base" = type { i32, ptr, ptr, ptr }
%"class.QuantLib::Date" = type { i64 }
%"class.boost::detail::shared_count" = type { ptr }
%"class.std::set" = type { %"class.std::_Rb_tree" }
%"class.std::_Rb_tree" = type { %"struct.std::_Rb_tree<boost::shared_ptr<QuantLib::Observable>, boost::shared_ptr<QuantLib::Observable>, std::_Identity<boost::shared_ptr<QuantLib::Observable>>, std::less<boost::shared_ptr<QuantLib::Observable>>>::_Rb_tree_impl" }
%"struct.std::_Rb_tree<boost::shared_ptr<QuantLib::Observable>, boost::shared_ptr<QuantLib::Observable>, std::_Identity<boost::shared_ptr<QuantLib::Observable>>, std::less<boost::shared_ptr<QuantLib::Observable>>>::_Rb_tree_impl" = type { [8 x i8], %"struct.std::_Rb_tree_header" }
%"class.QuantLib::Observable" = type { ptr, %"class.std::set.0" }
%"class.QuantLib::DayCounter" = type { %"class.boost::shared_ptr.16" }
%"class.boost::shared_ptr.16" = type { ptr, %"class.boost::detail::shared_count" }
%"class.QuantLib::Observer" = type { ptr, %"class.std::set" }
%"class.QuantLib::Handle" = type { %"class.boost::shared_ptr.18" }
%"class.boost::shared_ptr.18" = type { ptr, %"class.boost::detail::shared_count" }
%"class.QuantLib::ForwardRateAgreement" = type { %"class.QuantLib::Instrument.base", i32, %"class.QuantLib::InterestRate", %"class.QuantLib::InterestRate", double, %"class.boost::shared_ptr.26", i8, %"class.QuantLib::DayCounter", %"class.QuantLib::Calendar", i32, %"class.QuantLib::Date", %"class.QuantLib::Date", %"class.QuantLib::Handle", double, %"class.QuantLib::Observable", %"class.QuantLib::Observer" }
%"class.QuantLib::Instrument.base" = type { %"class.QuantLib::LazyObject.base", double, double, %"class.QuantLib::Date", %"class.std::map.19", %"class.boost::shared_ptr.25" }
%"class.QuantLib::LazyObject.base" = type <{ ptr, i8, i8, i8, i8 }>
%"class.std::map.19" = type { %"class.std::_Rb_tree.20" }
%"class.std::_Rb_tree.20" = type { %"struct.std::_Rb_tree<std::__cxx11::basic_string<char>, std::pair<const std::__cxx11::basic_string<char>, boost::any>, std::_Select1st<std::pair<const std::__cxx11::basic_string<char>, boost::any>>, std::less<std::__cxx11::basic_string<char>>>::_Rb_tree_impl" }
%"struct.std::_Rb_tree<std::__cxx11::basic_string<char>, std::pair<const std::__cxx11::basic_string<char>, boost::any>, std::_Select1st<std::pair<const std::__cxx11::basic_string<char>, boost::any>>, std::less<std::__cxx11::basic_string<char>>>::_Rb_tree_impl" = type { [8 x i8], %"struct.std::_Rb_tree_header" }
%"class.boost::shared_ptr.25" = type { ptr, %"class.boost::detail::shared_count" }
%"class.QuantLib::InterestRate" = type { double, %"class.QuantLib::DayCounter", i32, i8, double }
%"class.boost::shared_ptr.26" = type { ptr, %"class.boost::detail::shared_count" }
%"class.QuantLib::Calendar" = type { %"class.boost::shared_ptr.17" }
%"class.boost::shared_ptr.17" = type { ptr, %"class.boost::detail::shared_count" }

; Function Attrs: mustprogress nounwind uwtable
define linkonce_odr noundef nonnull align 8 dereferenceable(16) ptr @_ZNK8QuantLib12InterestRate10dayCounterEv(ptr noundef nonnull align 8 dereferenceable(40) %this) #1 comdat align 2 {
entry:
  %this.addr = alloca ptr, align 8
  store ptr %this, ptr %this.addr, align 8, !tbaa !3
  %this1 = load ptr, ptr %this.addr, align 8
  %dc_ = getelementptr inbounds nuw %"class.QuantLib::InterestRate", ptr %this1, i32 0, i32 1
  ret ptr %dc_
}

; Function Attrs: mustprogress nounwind uwtable
define linkonce_odr noundef double @_ZNK8QuantLib12InterestRate4rateEv(ptr noundef nonnull align 8 dereferenceable(40) %this) #1 comdat align 2 {
entry:
  %this.addr = alloca ptr, align 8
  store ptr %this, ptr %this.addr, align 8, !tbaa !3
  %this1 = load ptr, ptr %this.addr, align 8
  %r_ = getelementptr inbounds nuw %"class.QuantLib::InterestRate", ptr %this1, i32 0, i32 0
  %0 = load double, ptr %r_, align 8, !tbaa !83
  ret double %0
}

; Function Attrs: mustprogress uwtable
define void @_ZNK8QuantLib20ForwardRateAgreement15calculateAmountEv(ptr noundef nonnull align 8 dereferenceable(304) %this) #2 align 2 {
entry:
  %this.addr = alloca ptr, align 8
  %sign = alloca i32, align 4
  %F = alloca double, align 8
  %K = alloca double, align 8
  %T = alloca double, align 8
  %ref.tmp = alloca %"class.QuantLib::Date", align 8
  %ref.tmp5 = alloca %"class.QuantLib::Date", align 8
  store ptr %this, ptr %this.addr, align 8, !tbaa !3
  %this1 = load ptr, ptr %this.addr, align 8
  call void @_ZNK8QuantLib20ForwardRateAgreement20calculateForwardRateEv(ptr noundef nonnull align 8 dereferenceable(304) %this1)
  call void @llvm.lifetime.start.p0(i64 4, ptr %sign) #12
  %fraType_ = getelementptr inbounds nuw %"class.QuantLib::ForwardRateAgreement", ptr %this1, i32 0, i32 1
  %0 = load i32, ptr %fraType_, align 8, !tbaa !53
  %cmp = icmp eq i32 %0, 0
  %cond = select i1 %cmp, i32 1, i32 -1
  store i32 %cond, ptr %sign, align 4, !tbaa !88
  call void @llvm.lifetime.start.p0(i64 8, ptr %F) #12
  %forwardRate_ = getelementptr inbounds nuw %"class.QuantLib::ForwardRateAgreement", ptr %this1, i32 0, i32 2
  %call = call noundef double @_ZNK8QuantLib12InterestRate4rateEv(ptr noundef nonnull align 8 dereferenceable(40) %forwardRate_)
  store double %call, ptr %F, align 8, !tbaa !26
  call void @llvm.lifetime.start.p0(i64 8, ptr %K) #12
  %strikeForwardRate_ = getelementptr inbounds nuw %"class.QuantLib::ForwardRateAgreement", ptr %this1, i32 0, i32 3
  %call2 = call noundef double @_ZNK8QuantLib12InterestRate4rateEv(ptr noundef nonnull align 8 dereferenceable(40) %strikeForwardRate_)
  store double %call2, ptr %K, align 8, !tbaa !26
  call void @llvm.lifetime.start.p0(i64 8, ptr %T) #12
  %forwardRate_3 = getelementptr inbounds nuw %"class.QuantLib::ForwardRateAgreement", ptr %this1, i32 0, i32 2
  %call4 = call noundef nonnull align 8 dereferenceable(16) ptr @_ZNK8QuantLib12InterestRate10dayCounterEv(ptr noundef nonnull align 8 dereferenceable(40) %forwardRate_3)
  %valueDate_ = getelementptr inbounds nuw %"class.QuantLib::ForwardRateAgreement", ptr %this1, i32 0, i32 10
  %maturityDate_ = getelementptr inbounds nuw %"class.QuantLib::ForwardRateAgreement", ptr %this1, i32 0, i32 11
  call void @llvm.lifetime.start.p0(i64 8, ptr %ref.tmp) #12
  call void @_ZN8QuantLib4DateC1Ev(ptr noundef nonnull align 8 dereferenceable(8) %ref.tmp)
  call void @llvm.lifetime.start.p0(i64 8, ptr %ref.tmp5) #12
  call void @_ZN8QuantLib4DateC1Ev(ptr noundef nonnull align 8 dereferenceable(8) %ref.tmp5)
  %call6 = call noundef double @_ZNK8QuantLib10DayCounter12yearFractionERKNS_4DateES3_S3_S3_(ptr noundef nonnull align 8 dereferenceable(16) %call4, ptr noundef nonnull align 8 dereferenceable(8) %valueDate_, ptr noundef nonnull align 8 dereferenceable(8) %maturityDate_, ptr noundef nonnull align 8 dereferenceable(8) %ref.tmp, ptr noundef nonnull align 8 dereferenceable(8) %ref.tmp5)
  call void @llvm.lifetime.end.p0(i64 8, ptr %ref.tmp5) #12
  call void @llvm.lifetime.end.p0(i64 8, ptr %ref.tmp) #12
  store double %call6, ptr %T, align 8, !tbaa !26
  %notionalAmount_ = getelementptr inbounds nuw %"class.QuantLib::ForwardRateAgreement", ptr %this1, i32 0, i32 4
  %1 = load double, ptr %notionalAmount_, align 8, !tbaa !54
  %2 = load i32, ptr %sign, align 4, !tbaa !88
  %conv = sitofp i32 %2 to double
  %mul = fmul double %1, %conv
  %3 = load double, ptr %F, align 8, !tbaa !26
  %4 = load double, ptr %K, align 8, !tbaa !26
  %sub = fsub double %3, %4
  %mul7 = fmul double %mul, %sub
  %5 = load double, ptr %T, align 8, !tbaa !26
  %mul8 = fmul double %mul7, %5
  %6 = load double, ptr %F, align 8, !tbaa !26
  %7 = load double, ptr %T, align 8, !tbaa !26
  %8 = call double @llvm.fmuladd.f64(double %6, double %7, double 1.000000e+00)
  %div = fdiv double %mul8, %8
  %amount_ = getelementptr inbounds nuw %"class.QuantLib::ForwardRateAgreement", ptr %this1, i32 0, i32 13
  store double %div, ptr %amount_, align 8, !tbaa !85
  call void @llvm.lifetime.end.p0(i64 8, ptr %T) #12
  call void @llvm.lifetime.end.p0(i64 8, ptr %K) #12
  call void @llvm.lifetime.end.p0(i64 8, ptr %F) #12
  call void @llvm.lifetime.end.p0(i64 4, ptr %sign) #12
  ret void
}