; Function Attrs: mustprogress uwtable
define void @_ZNK8QuantLib20ForwardRateAgreement15calculateAmountEv(ptr noundef nonnull align 8 dereferenceable(304) %this) local_unnamed_addr #6 align 2 {
entry:
  %ref.tmp = alloca %"class.QuantLib::Date", align 8
  %ref.tmp5 = alloca %"class.QuantLib::Date", align 8
  tail call void @_ZNK8QuantLib20ForwardRateAgreement20calculateForwardRateEv(ptr noundef nonnull align 8 dereferenceable(304) %this)
  %fraType_ = getelementptr inbounds nuw i8, ptr %this, i64 104
  %0 = load i32, ptr %fraType_, align 8, !tbaa !69
  %cmp = icmp eq i32 %0, 0
  %cond = select i1 %cmp, i32 1, i32 -1
  %forwardRate_ = getelementptr inbounds nuw i8, ptr %this, i64 112
  %1 = load double, ptr %forwardRate_, align 8, !tbaa !102
  %strikeForwardRate_ = getelementptr inbounds nuw i8, ptr %this, i64 152
  %2 = load double, ptr %strikeForwardRate_, align 8, !tbaa !102
  %dc_.i = getelementptr inbounds nuw i8, ptr %this, i64 120
  %valueDate_ = getelementptr inbounds nuw i8, ptr %this, i64 264
  %maturityDate_ = getelementptr inbounds nuw i8, ptr %this, i64 272
  call void @llvm.lifetime.start.p0(i64 8, ptr nonnull %ref.tmp) #27
  call void @_ZN8QuantLib4DateC1Ev(ptr noundef nonnull align 8 dereferenceable(8) %ref.tmp)
  call void @llvm.lifetime.start.p0(i64 8, ptr nonnull %ref.tmp5) #27
  call void @_ZN8QuantLib4DateC1Ev(ptr noundef nonnull align 8 dereferenceable(8) %ref.tmp5)
  %call6 = call noundef double @_ZNK8QuantLib10DayCounter12yearFractionERKNS_4DateES3_S3_S3_(ptr noundef nonnull align 8 dereferenceable(16) %dc_.i, ptr noundef nonnull align 8 dereferenceable(8) %valueDate_, ptr noundef nonnull align 8 dereferenceable(8) %maturityDate_, ptr noundef nonnull align 8 dereferenceable(8) %ref.tmp, ptr noundef nonnull align 8 dereferenceable(8) %ref.tmp5)
  call void @llvm.lifetime.end.p0(i64 8, ptr nonnull %ref.tmp5) #27
  call void @llvm.lifetime.end.p0(i64 8, ptr nonnull %ref.tmp) #27
  %notionalAmount_ = getelementptr inbounds nuw i8, ptr %this, i64 192
  %3 = load double, ptr %notionalAmount_, align 8, !tbaa !70
  %conv = sitofp i32 %cond to double
  %mul = fmul double %3, %conv
  %sub = fsub double %1, %2
  %mul7 = fmul double %sub, %mul
  %mul8 = fmul double %call6, %mul7
  %4 = call double @llvm.fmuladd.f64(double %1, double %call6, double 1.000000e+00)
  %div = fdiv double %mul8, %4
  %amount_ = getelementptr inbounds nuw i8, ptr %this, i64 296
  store double %div, ptr %amount_, align 8, !tbaa !110
  ret void
}